; Function Attrs: mustprogress uwtable
define dso_local noundef range(i32 0, 2) i32 @_Z9lua_equalP9lua_Stateii(ptr noundef %0, i32 noundef %1, i32 noundef %2) local_unnamed_addr #3 {
  %4 = icmp sgt i32 %1, 0
  br i1 %4, label %5, label %13

5:                                                ; preds = %3
  %6 = getelementptr inbounds nuw i8, ptr %0, i64 16
  %7 = load ptr, ptr %6, align 8, !tbaa !4
  %8 = zext nneg i32 %1 to i64
  %9 = getelementptr %struct.lua_TValue, ptr %7, i64 %8
  %10 = getelementptr i8, ptr %9, i64 -16
  %11 = getelementptr inbounds nuw i8, ptr %0, i64 8
  %12 = load ptr, ptr %11, align 8, !tbaa !19
  %.not.i14 = icmp ult ptr %10, %12
  %.luaO_nilobject_.i15 = select i1 %.not.i14, ptr %10, ptr @luaO_nilobject_
  br label %_ZL10index2addrP9lua_Statei.exit16

13:                                               ; preds = %3
  %14 = icmp sgt i32 %1, -10000
  br i1 %14, label %15, label %20

15:                                               ; preds = %13
  %16 = getelementptr inbounds nuw i8, ptr %0, i64 8
  %17 = load ptr, ptr %16, align 8, !tbaa !19
  %18 = sext i32 %1 to i64
  %19 = getelementptr inbounds %struct.lua_TValue, ptr %17, i64 %18
  br label %_ZL10index2addrP9lua_Statei.exit16

20:                                               ; preds = %13
  %21 = tail call fastcc noundef ptr @_ZL11pseudo2addrP9lua_Statei(ptr noundef %0, i32 noundef %1)
  br label %_ZL10index2addrP9lua_Statei.exit16

_ZL10index2addrP9lua_Statei.exit16:               ; preds = %5, %15, %20
  %.1.i13 = phi ptr [ %.luaO_nilobject_.i15, %5 ], [ %19, %15 ], [ %21, %20 ]
  %22 = icmp sgt i32 %2, 0
  br i1 %22, label %23, label %31

23:                                               ; preds = %_ZL10index2addrP9lua_Statei.exit16
  %24 = getelementptr inbounds nuw i8, ptr %0, i64 16
  %25 = load ptr, ptr %24, align 8, !tbaa !4
  %26 = zext nneg i32 %2 to i64
  %27 = getelementptr %struct.lua_TValue, ptr %25, i64 %26
  %28 = getelementptr i8, ptr %27, i64 -16
  %29 = getelementptr inbounds nuw i8, ptr %0, i64 8
  %30 = load ptr, ptr %29, align 8, !tbaa !19
  %.not.i = icmp ult ptr %28, %30
  %.luaO_nilobject_.i = select i1 %.not.i, ptr %28, ptr @luaO_nilobject_
  br label %_ZL10index2addrP9lua_Statei.exit

31:                                               ; preds = %_ZL10index2addrP9lua_Statei.exit16
  %32 = icmp sgt i32 %2, -10000
  br i1 %32, label %33, label %38

33:                                               ; preds = %31
  %34 = getelementptr inbounds nuw i8, ptr %0, i64 8
  %35 = load ptr, ptr %34, align 8, !tbaa !19
  %36 = sext i32 %2 to i64
  %37 = getelementptr inbounds %struct.lua_TValue, ptr %35, i64 %36
  br label %_ZL10index2addrP9lua_Statei.exit

38:                                               ; preds = %31
  %39 = tail call fastcc noundef ptr @_ZL11pseudo2addrP9lua_Statei(ptr noundef %0, i32 noundef %2)
  br label %_ZL10index2addrP9lua_Statei.exit

_ZL10index2addrP9lua_Statei.exit:                 ; preds = %23, %33, %38
  %.1.i = phi ptr [ %.luaO_nilobject_.i, %23 ], [ %37, %33 ], [ %39, %38 ]
  %40 = icmp eq ptr %.1.i13, @luaO_nilobject_
  %41 = icmp eq ptr %.1.i, @luaO_nilobject_
  %or.cond = or i1 %40, %41
  br i1 %or.cond, label %52, label %42

42:                                               ; preds = %_ZL10index2addrP9lua_Statei.exit
  %43 = getelementptr inbounds nuw i8, ptr %.1.i13, i64 12
  %44 = load i32, ptr %43, align 4, !tbaa !47
  %45 = getelementptr inbounds nuw i8, ptr %.1.i, i64 12
  %46 = load i32, ptr %45, align 4, !tbaa !47
  %47 = icmp eq i32 %44, %46
  br i1 %47, label %48, label %52

48:                                               ; preds = %42
  %49 = tail call noundef i32 @_Z13luaV_equalvalP9lua_StatePK10lua_TValueS3_(ptr noundef %0, ptr noundef %.1.i13, ptr noundef %.1.i)
  %50 = icmp ne i32 %49, 0
  %51 = zext i1 %50 to i32
  br label %52

52:                                               ; preds = %42, %48, %_ZL10index2addrP9lua_Statei.exit
  %53 = phi i32 [ 0, %_ZL10index2addrP9lua_Statei.exit ], [ 0, %42 ], [ %51, %48 ]
  ret i32 %53
}